target datalayout = "e-m:e-p270:32:32-p271:32:32-p272:64:64-i64:64-i128:128-f80:128-n8:16:32:64-S128"
target triple = "x86_64-pc-linux-gnu"

@rb_eTypeError = external global i64, align 8
@.str.23 = private unnamed_addr constant [54 x i8] c"long too big for this architecture (size 8, given %d)\00", align 1

; Function Attrs: noreturn nounwind sspstrong uwtable
define internal void @long_toobig(i32 noundef %0) #11 {
  %2 = alloca i32, align 4
  store i32 %0, ptr %2, align 4, !tbaa !22
  %3 = load i64, ptr @rb_eTypeError, align 8, !tbaa !7
  %4 = load i32, ptr %2, align 4, !tbaa !22
  call void (i64, ptr, ...) @rb_raise(i64 noundef %3, ptr noundef @.str.23, i32 noundef %4) #24
  unreachable
}

; Function Attrs: nounwind sspstrong uwtable
define internal i64 @r_long(ptr noundef %0) #0 {
  %2 = alloca i64, align 8
  %3 = alloca ptr, align 8
  %4 = alloca i64, align 8
  %5 = alloca i32, align 4
  %6 = alloca i64, align 8
  %7 = alloca i32, align 4
  store ptr %0, ptr %3, align 8, !tbaa !33
  call void @llvm.lifetime.start.p0(i64 8, ptr %4) #23
  call void @llvm.lifetime.start.p0(i64 4, ptr %5) #23
  %8 = load ptr, ptr %3, align 8, !tbaa !33
  %9 = call i32 @r_byte(ptr noundef %8)
  %10 = trunc i32 %9 to i8
  %11 = sext i8 %10 to i32
  store i32 %11, ptr %5, align 4, !tbaa !22
  call void @llvm.lifetime.start.p0(i64 8, ptr %6) #23
  %12 = load i32, ptr %5, align 4, !tbaa !22
  %13 = icmp eq i32 %12, 0
  br i1 %13, label %14, label %15

14:                                               ; preds = %1
  store i64 0, ptr %2, align 8
  store i32 1, ptr %7, align 4
  br label %96

15:                                               ; preds = %1
  %16 = load i32, ptr %5, align 4, !tbaa !22
  %17 = icmp sgt i32 %16, 0
  br i1 %17, label %18, label %52

18:                                               ; preds = %15
  %19 = load i32, ptr %5, align 4, !tbaa !22
  %20 = icmp slt i32 4, %19
  br i1 %20, label %21, label %28

21:                                               ; preds = %18
  %22 = load i32, ptr %5, align 4, !tbaa !22
  %23 = icmp slt i32 %22, 128
  br i1 %23, label %24, label %28

24:                                               ; preds = %21
  %25 = load i32, ptr %5, align 4, !tbaa !22
  %26 = sub i32 %25, 5
  %27 = sext i32 %26 to i64
  store i64 %27, ptr %2, align 8
  store i32 1, ptr %7, align 4
  br label %96

28:                                               ; preds = %21, %18
  %29 = load i32, ptr %5, align 4, !tbaa !22
  %30 = icmp sgt i32 %29, 8
  br i1 %30, label %31, label %33

31:                                               ; preds = %28
  %32 = load i32, ptr %5, align 4, !tbaa !22
  call void @long_toobig(i32 noundef %32) #24
  unreachable

33:                                               ; preds = %28
  store i64 0, ptr %4, align 8, !tbaa !7
  store i64 0, ptr %6, align 8, !tbaa !7
  br label %34

34:                                               ; preds = %48, %33
  %35 = load i64, ptr %6, align 8, !tbaa !7
  %36 = load i32, ptr %5, align 4, !tbaa !22
  %37 = sext i32 %36 to i64
  %38 = icmp slt i64 %35, %37
  br i1 %38, label %39, label %51

39:                                               ; preds = %34
  %40 = load ptr, ptr %3, align 8, !tbaa !33
  %41 = call i32 @r_byte(ptr noundef %40)
  %42 = sext i32 %41 to i64
  %43 = load i64, ptr %6, align 8, !tbaa !7
  %44 = mul i64 8, %43
  %45 = shl i64 %42, %44
  %46 = load i64, ptr %4, align 8, !tbaa !7
  %47 = or i64 %46, %45
  store i64 %47, ptr %4, align 8, !tbaa !7
  br label %48

48:                                               ; preds = %39
  %49 = load i64, ptr %6, align 8, !tbaa !7
  %50 = add i64 %49, 1
  store i64 %50, ptr %6, align 8, !tbaa !7
  br label %34, !llvm.loop !35

51:                                               ; preds = %34
  br label %94

52:                                               ; preds = %15
  %53 = load i32, ptr %5, align 4, !tbaa !22
  %54 = icmp slt i32 -129, %53
  br i1 %54, label %55, label %62

55:                                               ; preds = %52
  %56 = load i32, ptr %5, align 4, !tbaa !22
  %57 = icmp slt i32 %56, -4
  br i1 %57, label %58, label %62

58:                                               ; preds = %55
  %59 = load i32, ptr %5, align 4, !tbaa !22
  %60 = add i32 %59, 5
  %61 = sext i32 %60 to i64
  store i64 %61, ptr %2, align 8
  store i32 1, ptr %7, align 4
  br label %96

62:                                               ; preds = %55, %52
  %63 = load i32, ptr %5, align 4, !tbaa !22
  %64 = sub i32 0, %63
  store i32 %64, ptr %5, align 4, !tbaa !22
  %65 = load i32, ptr %5, align 4, !tbaa !22
  %66 = icmp sgt i32 %65, 8
  br i1 %66, label %67, label %69

67:                                               ; preds = %62
  %68 = load i32, ptr %5, align 4, !tbaa !22
  call void @long_toobig(i32 noundef %68) #24
  unreachable

69:                                               ; preds = %62
  store i64 -1, ptr %4, align 8, !tbaa !7
  store i64 0, ptr %6, align 8, !tbaa !7
  br label %70

70:                                               ; preds = %90, %69
  %71 = load i64, ptr %6, align 8, !tbaa !7
  %72 = load i32, ptr %5, align 4, !tbaa !22
  %73 = sext i32 %72 to i64
  %74 = icmp slt i64 %71, %73
  br i1 %74, label %75, label %93

75:                                               ; preds = %70
  %76 = load i64, ptr %6, align 8, !tbaa !7
  %77 = mul i64 8, %76
  %78 = shl i64 255, %77
  %79 = xor i64 %78, -1
  %80 = load i64, ptr %4, align 8, !tbaa !7
  %81 = and i64 %80, %79
  store i64 %81, ptr %4, align 8, !tbaa !7
  %82 = load ptr, ptr %3, align 8, !tbaa !33
  %83 = call i32 @r_byte(ptr noundef %82)
  %84 = sext i32 %83 to i64
  %85 = load i64, ptr %6, align 8, !tbaa !7
  %86 = mul i64 8, %85
  %87 = shl i64 %84, %86
  %88 = load i64, ptr %4, align 8, !tbaa !7
  %89 = or i64 %88, %87
  store i64 %89, ptr %4, align 8, !tbaa !7
  br label %90

90:                                               ; preds = %75
  %91 = load i64, ptr %6, align 8, !tbaa !7
  %92 = add i64 %91, 1
  store i64 %92, ptr %6, align 8, !tbaa !7
  br label %70, !llvm.loop !36

93:                                               ; preds = %70
  br label %94

94:                                               ; preds = %93, %51
  %95 = load i64, ptr %4, align 8, !tbaa !7
  store i64 %95, ptr %2, align 8
  store i32 1, ptr %7, align 4
  br label %96

96:                                               ; preds = %94, %58, %24, %14
  call void @llvm.lifetime.end.p0(i64 8, ptr %6) #23
  call void @llvm.lifetime.end.p0(i64 4, ptr %5) #23
  call void @llvm.lifetime.end.p0(i64 8, ptr %4) #23
  %97 = load i64, ptr %2, align 8
  ret i64 %97
}

; Function Attrs: nounwind sspstrong uwtable
define internal i64 @r_string(ptr noundef %0) #0 {
  %2 = alloca ptr, align 8
  store ptr %0, ptr %2, align 8, !tbaa !33
  %3 = load ptr, ptr %2, align 8, !tbaa !33
  %4 = call i64 @r_long(ptr noundef %3)
  %5 = load ptr, ptr %2, align 8, !tbaa !33
  %6 = call i64 @r_bytes0(i64 noundef %4, ptr noundef %5)
  ret i64 %6
}