; Function Attrs: nounwind sspstrong uwtable
define internal fastcc i64 @r_string(ptr noundef captures(none) %0) unnamed_addr #0 {
  %2 = tail call fastcc i32 @r_byte(ptr noundef %0)
  %sext.i = shl nuw i32 %2, 24
  %3 = ashr exact i32 %sext.i, 24
  %4 = icmp eq i32 %2, 0
  br i1 %4, label %r_long.exit, label %5

5:                                                ; preds = %1
  %6 = icmp sgt i32 %3, 0
  br i1 %6, label %7, label %20

7:                                                ; preds = %5
  %8 = icmp samesign ugt i32 %3, 4
  br i1 %8, label %10, label %.preheader.i

.preheader.i:                                     ; preds = %7
  %9 = zext nneg i32 %3 to i64
  br label %13

10:                                               ; preds = %7
  %11 = add nsw i32 %3, -5
  %12 = zext nneg i32 %11 to i64
  br label %r_long.exit

13:                                               ; preds = %13, %.preheader.i
  %.042.i = phi i64 [ 0, %.preheader.i ], [ %19, %13 ]
  %.03241.i = phi i64 [ 0, %.preheader.i ], [ %18, %13 ]
  %14 = tail call fastcc i32 @r_byte(ptr noundef %0)
  %15 = zext nneg i32 %14 to i64
  %16 = shl nuw nsw i64 %.042.i, 3
  %17 = shl i64 %15, %16
  %18 = or i64 %17, %.03241.i
  %19 = add nuw nsw i64 %.042.i, 1
  %exitcond45.not.i = icmp eq i64 %19, %9
  br i1 %exitcond45.not.i, label %r_long.exit, label %13, !llvm.loop !25

20:                                               ; preds = %5
  %21 = icmp slt i32 %3, -4
  br i1 %21, label %22, label %25

22:                                               ; preds = %20
  %23 = add nsw i32 %3, 5
  %24 = sext i32 %23 to i64
  br label %r_long.exit

25:                                               ; preds = %20
  %26 = sub nsw i32 0, %3
  %27 = tail call i32 @llvm.umax.i32(i32 %26, i32 1)
  %umax.i = zext nneg i32 %27 to i64
  br label %28

28:                                               ; preds = %28, %25
  %.140.i = phi i64 [ 0, %25 ], [ %37, %28 ]
  %.239.i = phi i64 [ -1, %25 ], [ %36, %28 ]
  %29 = shl nuw nsw i64 %.140.i, 3
  %30 = shl i64 255, %29
  %31 = xor i64 %30, -1
  %32 = and i64 %.239.i, %31
  %33 = tail call fastcc i32 @r_byte(ptr noundef %0)
  %34 = zext nneg i32 %33 to i64
  %35 = shl i64 %34, %29
  %36 = or i64 %35, %32
  %37 = add nuw nsw i64 %.140.i, 1
  %exitcond.not.i = icmp eq i64 %37, %umax.i
  br i1 %exitcond.not.i, label %r_long.exit, label %28, !llvm.loop !26

r_long.exit:                                      ; preds = %28, %13, %1, %10, %22
  %.034.i = phi i64 [ %12, %10 ], [ %24, %22 ], [ 0, %1 ], [ %18, %13 ], [ %36, %28 ]
  %38 = tail call fastcc i64 @r_bytes0(i64 noundef %.034.i, ptr noundef %0)
  ret i64 %38
}